target datalayout = "e-m:e-p270:32:32-p271:32:32-p272:64:64-i64:64-i128:128-f80:128-n8:16:32:64-S128"
target triple = "x86_64-pc-linux-gnu"

; Function Attrs: inlinehint nounwind uwtable
define internal void @pmix_strncpy(ptr noundef %0, ptr noundef %1, i64 noundef %2) #1 {
  %4 = alloca ptr, align 8
  %5 = alloca ptr, align 8
  %6 = alloca i64, align 8
  %7 = alloca i64, align 8
  store ptr %0, ptr %4, align 8, !tbaa !3
  store ptr %1, ptr %5, align 8, !tbaa !3
  store i64 %2, ptr %6, align 8, !tbaa !30
  call void @llvm.lifetime.start.p0(i64 8, ptr %7) #15
  store i64 0, ptr %7, align 8, !tbaa !30
  br label %8

8:                                                ; preds = %22, %3
  %9 = load i64, ptr %7, align 8, !tbaa !30
  %10 = load i64, ptr %6, align 8, !tbaa !30
  %11 = icmp ult i64 %9, %10
  br i1 %11, label %12, label %29

12:                                               ; preds = %8
  %13 = load ptr, ptr %5, align 8, !tbaa !3
  %14 = load i8, ptr %13, align 1, !tbaa !29
  %15 = load ptr, ptr %4, align 8, !tbaa !3
  store i8 %14, ptr %15, align 1, !tbaa !29
  %16 = load ptr, ptr %5, align 8, !tbaa !3
  %17 = load i8, ptr %16, align 1, !tbaa !29
  %18 = sext i8 %17 to i32
  %19 = icmp eq i32 0, %18
  br i1 %19, label %20, label %21

20:                                               ; preds = %12
  br label %29

21:                                               ; preds = %12
  br label %22

22:                                               ; preds = %21
  %23 = load i64, ptr %7, align 8, !tbaa !30
  %24 = add i64 %23, 1
  store i64 %24, ptr %7, align 8, !tbaa !30
  %25 = load ptr, ptr %5, align 8, !tbaa !3
  %26 = getelementptr inbounds nuw i8, ptr %25, i32 1
  store ptr %26, ptr %5, align 8, !tbaa !3
  %27 = load ptr, ptr %4, align 8, !tbaa !3
  %28 = getelementptr inbounds nuw i8, ptr %27, i32 1
  store ptr %28, ptr %4, align 8, !tbaa !3
  br label %8, !llvm.loop !224

29:                                               ; preds = %20, %8
  %30 = load ptr, ptr %4, align 8, !tbaa !3
  store i8 0, ptr %30, align 1, !tbaa !29
  call void @llvm.lifetime.end.p0(i64 8, ptr %7) #15
  ret void
}

; Function Attrs: inlinehint nounwind uwtable
define internal void @pmix_bfrops_base_tma_load_nspace(ptr noundef %0, ptr noundef %1, ptr noundef %2) #1 {
  %4 = alloca ptr, align 8
  %5 = alloca ptr, align 8
  %6 = alloca ptr, align 8
  store ptr %0, ptr %4, align 8, !tbaa !3
  store ptr %1, ptr %5, align 8, !tbaa !3
  store ptr %2, ptr %6, align 8, !tbaa !8
  %7 = load ptr, ptr %4, align 8, !tbaa !3
  call void @llvm.memset.p0.i64(ptr align 1 %7, i8 0, i64 256, i1 false)
  %8 = load ptr, ptr %5, align 8, !tbaa !3
  %9 = icmp ne ptr null, %8
  br i1 %9, label %10, label %13

10:                                               ; preds = %3
  %11 = load ptr, ptr %4, align 8, !tbaa !3
  %12 = load ptr, ptr %5, align 8, !tbaa !3
  call void @pmix_strncpy(ptr noundef %11, ptr noundef %12, i64 noundef 255)
  br label %13

13:                                               ; preds = %10, %3
  ret void
}

; Function Attrs: inlinehint nounwind uwtable
define internal void @pmix_bfrops_base_tma_multicluster_nspace_parse(ptr noundef %0, ptr noundef %1, ptr noundef %2, ptr noundef %3) #1 {
  %5 = alloca ptr, align 8
  %6 = alloca ptr, align 8
  %7 = alloca ptr, align 8
  %8 = alloca ptr, align 8
  %9 = alloca i64, align 8
  %10 = alloca i64, align 8
  store ptr %0, ptr %5, align 8, !tbaa !3
  store ptr %1, ptr %6, align 8, !tbaa !3
  store ptr %2, ptr %7, align 8, !tbaa !3
  store ptr %3, ptr %8, align 8, !tbaa !8
  call void @llvm.lifetime.start.p0(i64 8, ptr %9) #15
  call void @llvm.lifetime.start.p0(i64 8, ptr %10) #15
  %11 = load ptr, ptr %6, align 8, !tbaa !3
  %12 = load ptr, ptr %8, align 8, !tbaa !8
  call void @pmix_bfrops_base_tma_load_nspace(ptr noundef %11, ptr noundef null, ptr noundef %12)
  store i64 0, ptr %9, align 8, !tbaa !30
  br label %13

13:                                               ; preds = %40, %4
  %14 = load ptr, ptr %5, align 8, !tbaa !3
  %15 = load i64, ptr %9, align 8, !tbaa !30
  %16 = getelementptr inbounds nuw i8, ptr %14, i64 %15
  %17 = load i8, ptr %16, align 1, !tbaa !29
  %18 = sext i8 %17 to i32
  %19 = icmp ne i32 0, %18
  br i1 %19, label %20, label %30

20:                                               ; preds = %13
  %21 = load ptr, ptr %5, align 8, !tbaa !3
  %22 = load i64, ptr %9, align 8, !tbaa !30
  %23 = getelementptr inbounds nuw i8, ptr %21, i64 %22
  %24 = load i8, ptr %23, align 1, !tbaa !29
  %25 = sext i8 %24 to i32
  %26 = icmp ne i32 58, %25
  br i1 %26, label %27, label %30

27:                                               ; preds = %20
  %28 = load i64, ptr %9, align 8, !tbaa !30
  %29 = icmp ult i64 %28, 255
  br label %30

30:                                               ; preds = %27, %20, %13
  %31 = phi i1 [ false, %20 ], [ false, %13 ], [ %29, %27 ]
  br i1 %31, label %32, label %43

32:                                               ; preds = %30
  %33 = load ptr, ptr %5, align 8, !tbaa !3
  %34 = load i64, ptr %9, align 8, !tbaa !30
  %35 = getelementptr inbounds nuw i8, ptr %33, i64 %34
  %36 = load i8, ptr %35, align 1, !tbaa !29
  %37 = load ptr, ptr %6, align 8, !tbaa !3
  %38 = load i64, ptr %9, align 8, !tbaa !30
  %39 = getelementptr inbounds nuw i8, ptr %37, i64 %38
  store i8 %36, ptr %39, align 1, !tbaa !29
  br label %40

40:                                               ; preds = %32
  %41 = load i64, ptr %9, align 8, !tbaa !30
  %42 = add i64 %41, 1
  store i64 %42, ptr %9, align 8, !tbaa !30
  br label %13, !llvm.loop !136

43:                                               ; preds = %30
  %44 = load i64, ptr %9, align 8, !tbaa !30
  %45 = add i64 %44, 1
  store i64 %45, ptr %9, align 8, !tbaa !30
  store i64 0, ptr %10, align 8, !tbaa !30
  br label %46

46:                                               ; preds = %66, %43
  %47 = load i64, ptr %9, align 8, !tbaa !30
  %48 = icmp ult i64 %47, 255
  br i1 %48, label %49, label %56

49:                                               ; preds = %46
  %50 = load ptr, ptr %5, align 8, !tbaa !3
  %51 = load i64, ptr %9, align 8, !tbaa !30
  %52 = getelementptr inbounds nuw i8, ptr %50, i64 %51
  %53 = load i8, ptr %52, align 1, !tbaa !29
  %54 = sext i8 %53 to i32
  %55 = icmp ne i32 0, %54
  br label %56

56:                                               ; preds = %49, %46
  %57 = phi i1 [ false, %46 ], [ %55, %49 ]
  br i1 %57, label %58, label %71

58:                                               ; preds = %56
  %59 = load ptr, ptr %5, align 8, !tbaa !3
  %60 = load i64, ptr %9, align 8, !tbaa !30
  %61 = getelementptr inbounds nuw i8, ptr %59, i64 %60
  %62 = load i8, ptr %61, align 1, !tbaa !29
  %63 = load ptr, ptr %7, align 8, !tbaa !3
  %64 = load i64, ptr %10, align 8, !tbaa !30
  %65 = getelementptr inbounds nuw i8, ptr %63, i64 %64
  store i8 %62, ptr %65, align 1, !tbaa !29
  br label %66

66:                                               ; preds = %58
  %67 = load i64, ptr %9, align 8, !tbaa !30
  %68 = add i64 %67, 1
  store i64 %68, ptr %9, align 8, !tbaa !30
  %69 = load i64, ptr %10, align 8, !tbaa !30
  %70 = add i64 %69, 1
  store i64 %70, ptr %10, align 8, !tbaa !30
  br label %46, !llvm.loop !137

71:                                               ; preds = %56
  call void @llvm.lifetime.end.p0(i64 8, ptr %10) #15
  call void @llvm.lifetime.end.p0(i64 8, ptr %9) #15
  ret void
}

; Function Attrs: nounwind uwtable
define void @PMIx_Multicluster_nspace_parse(ptr noundef %0, ptr noundef %1, ptr noundef %2) #0 {
  %4 = alloca ptr, align 8
  %5 = alloca ptr, align 8
  %6 = alloca ptr, align 8
  store ptr %0, ptr %4, align 8, !tbaa !3
  store ptr %1, ptr %5, align 8, !tbaa !3
  store ptr %2, ptr %6, align 8, !tbaa !3
  %7 = load ptr, ptr %4, align 8, !tbaa !3
  %8 = load ptr, ptr %5, align 8, !tbaa !3
  %9 = load ptr, ptr %6, align 8, !tbaa !3
  call void @pmix_bfrops_base_tma_multicluster_nspace_parse(ptr noundef %7, ptr noundef %8, ptr noundef %9, ptr noundef null)
  ret void
}