; Function Attrs: nofree norecurse nosync nounwind memory(argmem: readwrite) uwtable
define void @PMIx_Multicluster_nspace_parse(ptr noundef readonly captures(none) %0, ptr noundef writeonly captures(none) initializes((0, 256)) %1, ptr noundef writeonly captures(none) %2) local_unnamed_addr #0 {
  tail call void @llvm.memset.p0.i64(ptr noundef nonnull align 1 dereferenceable(256) %1, i8 0, i64 256, i1 false)
  %4 = load i8, ptr %0, align 1, !tbaa !3
  %.not1.i = icmp eq i8 %4, 0
  br i1 %.not1.i, label %.lr.ph8.preheader.i, label %.lr.ph.i

.lr.ph.i:                                         ; preds = %3, %8
  %5 = phi i8 [ %12, %8 ], [ %4, %3 ]
  %.0242.i = phi i64 [ %10, %8 ], [ 0, %3 ]
  %6 = icmp ne i8 %5, 58
  %7 = icmp samesign ult i64 %.0242.i, 255
  %or.cond.i = select i1 %6, i1 %7, i1 false
  br i1 %or.cond.i, label %8, label %.critedge.i

8:                                                ; preds = %.lr.ph.i
  %9 = getelementptr inbounds nuw i8, ptr %1, i64 %.0242.i
  store i8 %5, ptr %9, align 1, !tbaa !3
  %10 = add nuw nsw i64 %.0242.i, 1
  %11 = getelementptr inbounds nuw i8, ptr %0, i64 %10
  %12 = load i8, ptr %11, align 1, !tbaa !3
  %.not.i = icmp eq i8 %12, 0
  br i1 %.not.i, label %.critedge.i, label %.lr.ph.i, !llvm.loop !106

.critedge.i:                                      ; preds = %8, %.lr.ph.i
  %.024.lcssa.i = phi i64 [ %10, %8 ], [ %.0242.i, %.lr.ph.i ]
  %13 = icmp samesign ult i64 %.024.lcssa.i, 254
  br i1 %13, label %.lr.ph8.preheader.i, label %pmix_bfrops_base_tma_multicluster_nspace_parse.exit

.lr.ph8.preheader.i:                              ; preds = %.critedge.i, %3
  %.024.lcssa11.i = phi i64 [ %.024.lcssa.i, %.critedge.i ], [ 0, %3 ]
  %14 = sub nuw nsw i64 254, %.024.lcssa11.i
  br label %.lr.ph8.i

.lr.ph8.i:                                        ; preds = %17, %.lr.ph8.preheader.i
  %.17.in.i = phi i64 [ %.17.i, %17 ], [ %.024.lcssa11.i, %.lr.ph8.preheader.i ]
  %.06.i = phi i64 [ %19, %17 ], [ 0, %.lr.ph8.preheader.i ]
  %.17.i = add nuw nsw i64 %.17.in.i, 1
  %15 = getelementptr inbounds nuw i8, ptr %0, i64 %.17.i
  %16 = load i8, ptr %15, align 1, !tbaa !3
  %.not26.i = icmp eq i8 %16, 0
  br i1 %.not26.i, label %pmix_bfrops_base_tma_multicluster_nspace_parse.exit, label %17

17:                                               ; preds = %.lr.ph8.i
  %18 = getelementptr inbounds nuw i8, ptr %2, i64 %.06.i
  store i8 %16, ptr %18, align 1, !tbaa !3
  %19 = add nuw nsw i64 %.06.i, 1
  %exitcond.not.i = icmp eq i64 %19, %14
  br i1 %exitcond.not.i, label %pmix_bfrops_base_tma_multicluster_nspace_parse.exit, label %.lr.ph8.i, !llvm.loop !107

pmix_bfrops_base_tma_multicluster_nspace_parse.exit: ; preds = %.lr.ph8.i, %17, %.critedge.i
  ret void
}